; Function Attrs: inlinehint nounwind uwtable
define internal fastcc void @lean_ctor_release(ptr noundef captures(none) %0) unnamed_addr #0 {
  %2 = getelementptr inbounds nuw i8, ptr %0, i64 8
  %3 = load ptr, ptr %2, align 8, !tbaa !12
  %4 = ptrtoint ptr %3 to i64
  %5 = and i64 %4, 1
  %.not = icmp eq i64 %5, 0
  br i1 %.not, label %6, label %lean_dec.exit

6:                                                ; preds = %1
  %7 = load i32, ptr %3, align 4, !tbaa !8
  %8 = icmp sgt i32 %7, 1
  br i1 %8, label %9, label %11, !prof !11

9:                                                ; preds = %6
  %10 = add nsw i32 %7, -1
  store i32 %10, ptr %3, align 4, !tbaa !8
  br label %lean_dec.exit

11:                                               ; preds = %6
  %.not.i = icmp eq i32 %7, 0
  br i1 %.not.i, label %lean_dec.exit, label %12

12:                                               ; preds = %11
  tail call void @lean_dec_ref_cold(ptr noundef nonnull %3) #4
  br label %lean_dec.exit

lean_dec.exit:                                    ; preds = %12, %11, %9, %1
  store ptr inttoptr (i64 1 to ptr), ptr %2, align 8, !tbaa !12
  ret void
}